MPASM 5.87           CLOCK_7SEGMENT_MAIN.ASM   8-22-2024  23:21:25         PAGE  1


LOC  OBJECT CODE     LINE SOURCE TEXT
  VALUE

                      00001 
                      00002 ; PIC16F628A Configuration Bit Settings
                      00003 
                      00004 ; Assembly source line config statements
                      00005 
                      00006 #include "p16f628a.inc"
                      00001         LIST
                      00002 
                      00003 ;==========================================================================
                      00004 ; Build date : Jan 06 2020
                      00005 ;  MPASM PIC16F628A processor include
                      00006 ; 
                      00007 ;  (c) Copyright 1999-2020 Microchip Technology, All rights reserved
                      00008 ;==========================================================================
                      00009 
                      00386         LIST
                      00007 
                      00008 ; CONFIG
                      00009 ; __config 0x3F50
2007   3F50           00010  __CONFIG _FOSC_INTOSCIO & _WDTE_OFF & _PWRTE_ON & _MCLRE_OFF & _BOREN_ON & _LVP_OFF & _CPD_OFF & _CP_OF
                            F
                      00011 
                      00012  #define    TMR_INI     d'61'
                      00013  #define    CNT1MS      d'21'
                      00014 
                      00015     ;レジスタ定義
                      00016     CBLOCK      0x20
  00000020            00017         w_tmp       ;割り込みハンドラ用
  00000021            00018         status_tmp  ;割り込みハンドラ用
                      00019         
  00000022            00020         sec     ;秒
  00000023            00021         min     ;分
  00000024            00022         hour    ;時間
  00000025            00023         sec_swap    ;16の桁用
  00000026            00024         min_swap    
  00000027            00025         hour_swap
  00000028            00026         digit   ;表示桁（0(時間2桁目)～6(秒1桁)）
  00000029            00027         count   ;割り込み回数カウンター
                      00028         
                      00029         
  0000002A            00030         CNT1    ;ダイナミック制御表示時間カウント用
  0000002B            00031         CNT2
                      00032     
                      00033     ENDC
                      00034 
                      00035     
                      00036     ORG     0x00
0000   2???           00037     GOTO    setup
                      00038     
                      00039     ORG     0x04
0004   2???           00040     GOTO    ISR
                      00041     
0005                  00042 setup:
MPASM 5.87           CLOCK_7SEGMENT_MAIN.ASM   8-22-2024  23:21:25         PAGE  2


LOC  OBJECT CODE     LINE SOURCE TEXT
  VALUE

0005   1283           00043     BCF     STATUS,RP0
0006   1303           00044     BCF     STATUS,RP1
                      00045     
                      00046     ;CLRF    INTCON     ;とりあえず割り込みダメ
0007   30A0           00047     MOVLW   B'10100000'
0008   008B           00048     MOVWF   INTCON
                      00049     
0009   3007           00050     MOVLW   0x07
000A   009F           00051     MOVWF   CMCON       ;コンパレータ無効（すべてデジタル）
                      00052     
                      00053     
                      00054     
000B   1683           00055     BSF     STATUS,RP0      ;バンク1に
000C   3000           00056     MOVLW   B'00000000'
Message[302]: Register in operand not in bank 0.  Ensure that bank bits are correct.
000D   0085           00057     MOVWF   TRISA
Message[302]: Register in operand not in bank 0.  Ensure that bank bits are correct.
000E   0086           00058     MOVWF   TRISB           ;PORTA,Bともにすべて出力
                      00059     
000F   0185           00060     CLRF    PORTA
0010   0186           00061     CLRF    PORTB           ;ポートをクリア
                      00062     
                      00063     
Message[302]: Register in operand not in bank 0.  Ensure that bank bits are correct.
0011   158E           00064     BSF     PCON,OSCF       ;オシレーター4MHz
                      00065     
0012   1283           00066     BCF     STATUS,RP0      ;バンク0に
                      00067     
0013   3087           00068     MOVLW   B'10000111'     ;プリスケーラ1/256
Warning[224]: Use of this instruction is not recommended.
0014   0062           00069     OPTION
                      00070     
0015   01A8           00071     CLRF    digit
0016   01A2           00072     CLRF    sec
0017   01A3           00073     CLRF    min
0018   01A4           00074     CLRF    hour
                      00075     
                      00076     
0019                  00077 main:
0019   303D           00078     MOVLW   TMR_INI
001A   0081           00079     MOVWF   TMR0            ;タイマー0初期値     256-61=195
001B   3015           00080     MOVLW   CNT1MS
001C   00A9           00081     MOVWF   count           ;割り込み繰り返し回数初期値
001D   30A0           00082     MOVLW   B'10100000'
001E   008B           00083     MOVWF   INTCON          ;タイマー0のオバーフロー割り込み許可
                      00084     
001F                  00085 main_loop:
                      00086     
                      00087     
                      00088     
001F   2???           00089     CALL    dynamic_con
                      00090     
0020   2???           00091     GOTO    main_loop
MPASM 5.87           CLOCK_7SEGMENT_MAIN.ASM   8-22-2024  23:21:25         PAGE  3


LOC  OBJECT CODE     LINE SOURCE TEXT
  VALUE

                      00092 
                      00093 ;ダイナミック制御
0021                  00094 dynamic_con:
0021   0828           00095     MOVFW   digit       ;何桁目かをwに
0022   2???           00096     CALL    a_pattern   ;パターンを持ってくる
0023   0085           00097     MOVWF   PORTA       ;PORTA出力
                      00098     
                      00099     
0024   0828           00100     MOVFW   digit           ;各桁の処理に飛ぶ
0025   3907           00101     ANDLW   b'00000111'     ;マスクする
0026   0782           00102     ADDWF   PCL,f
0027   2???           00103     GOTO    get_hour_16
0028   2???           00104     GOTO    get_hour
0029   2???           00105     GOTO    get_min_16
002A   2???           00106     GOTO    get_min
002B   2???           00107     GOTO    get_sec_16
002C   2???           00108     GOTO    get_sec
                      00109     
002D                  00110 get_hour:
002D   0824           00111     MOVFW   hour        ;時間の1桁目をとってくる
002E   2???           00112     GOTO    set_data
                      00113     
002F                  00114 get_min:
002F   0823           00115     MOVFW   min         ;分の1桁目をとってくる
0030   2???           00116     GOTO    set_data
                      00117     
0031                  00118 get_sec:
0031   0822           00119     MOVFW   sec         ;秒の1桁目をとってくる
0032   2???           00120     GOTO    set_data
                      00121     
                      00122     ;ここから16の桁の処理
0033                  00123 get_hour_16:   
0033   0E24           00124     SWAPF   hour,w      ;時間の16桁目をとってくる
0034   2???           00125     GOTO    set_data
                      00126     
0035                  00127 get_min_16:
0035   0E23           00128     SWAPF   min,w       ;分の16桁目をとってくる
0036   2???           00129     GOTO    set_data
                      00130 
0037                  00131 get_sec_16:
0037   0E22           00132     SWAPF   sec,w       ;秒の16桁目をとってくる
                      00133     
0038                  00134 set_data:
0038   2???           00135     CALL    segment_data    ;wの文字のデータをとってくる
0039   0086           00136     MOVWF   PORTB
                      00137     
                      00138     
003A   2???           00139     CALL    DLY_50
                      00140     
003B                  00141 inc_digit:
                      00142     
003B   0AA8           00143     INCF    digit,f     ;桁数をインクリメントして
003C   3006           00144     MOVLW   D'6'
MPASM 5.87           CLOCK_7SEGMENT_MAIN.ASM   8-22-2024  23:21:25         PAGE  4


LOC  OBJECT CODE     LINE SOURCE TEXT
  VALUE

003D   0228           00145     SUBWF   digit,w     ;6と比較して
003E   1D03           00146     BTFSS   STATUS,Z    ;6だったらスキップ
003F   2???           00147     GOTO    dynamic_con
                      00148     
0040   01A8           00149     CLRF    digit       ;桁数を0に戻す
0041   0008           00150     RETURN
                      00151 
                      00152 ;PORTAパターン
0042                  00153 a_pattern:
0042   3907           00154     ANDLW   b'00000111'     ;マスクする
0043   0782           00155     ADDWF   PCL,f
0044   34FE           00156     RETLW   b'11111110'     ;RA0
0045   34FD           00157     RETLW   b'11111101'     ;RA1
0046   34FB           00158     RETLW   b'11111011'     ;RA2
0047   34F7           00159     RETLW   b'11110111'     ;RA3
0048   34EF           00160     RETLW   b'11101111'     ;RA4
0049   34BF           00161     RETLW   b'10111111'     ;RA6
004A   0008           00162     RETURN
                      00163       
                      00164 ;7セグデータ
004B                  00165 segment_data:
004B   390F           00166     ANDLW   b'00001111'     ;マスクする
004C   0782           00167     ADDWF   PCL,f
004D   34C0           00168     RETLW   b'11000000'     ;0
004E   34F9           00169     RETLW   b'11111001'     ;1
004F   34A4           00170     RETLW   b'10100100'     ;2
0050   34B0           00171     RETLW   b'10110000'     ;3
0051   3499           00172     RETLW   b'10011001'     ;4
0052   3492           00173     RETLW   b'10010010'     ;5
0053   3482           00174     RETLW   b'10000010'     ;6
0054   34F8           00175     RETLW   b'11111000'     ;7
0055   3480           00176     RETLW   b'10000000'     ;8
0056   3490           00177     RETLW   b'10010000'     ;9
0057   3488           00178     RETLW   b'10001000'     ;A
0058   3483           00179     RETLW   b'10000011'     ;B
0059   34A7           00180     RETLW   b'10100111'     ;C
005A   34A1           00181     RETLW   b'10100001'     ;D
005B   3486           00182     RETLW   b'10000110'     ;E
005C   348E           00183     RETLW   b'10001110'     ;F
005D   0008           00184     RETURN
                      00185     
005E                  00186 DLY_50:
                      00187     
005E   3001           00188     MOVLW   d'1'   ;1ms
005F   00AA           00189     MOVWF   CNT1
                      00190     
0060                  00191 DLP1:
0060   30C8           00192     MOVLW   d'200'  ;1ms
0061   00AB           00193     MOVWF   CNT2
                      00194     
0062                  00195 DLP2:
0062   0000           00196     NOP
0063   0000           00197     NOP
MPASM 5.87           CLOCK_7SEGMENT_MAIN.ASM   8-22-2024  23:21:25         PAGE  5


LOC  OBJECT CODE     LINE SOURCE TEXT
  VALUE

0064   0BAB           00198     DECFSZ  CNT2,f
0065   2???           00199     GOTO    DLP2
0066   0BAA           00200     DECFSZ  CNT1,f
0067   2???           00201     GOTO    DLP1
0068   0008           00202     RETURN
                      00203 
                      00204 ;------------------------------------------------------------
                      00205 ;割り込み処理
0069                  00206 ISR:
0069   00A0           00207     MOVWF   w_tmp           ;退避
006A   0E03           00208     SWAPF   STATUS,w
006B   00A1           00209     MOVWF   status_tmp
006C   03A9           00210     DECF    count,f         ;割り込み回数カウントデクリメント
006D   1D03           00211     BTFSS   STATUS,Z        ;カウントが0になったか？
006E   2???           00212     GOTO    set_timer       ;0以外はTMR0設定へ
006F   2???           00213     CALL    countup         ;カウントアップ処理（繰り上がり含む
0070   3015           00214     MOVLW   CNT1MS          ;割り込み回数再設定
0071   00A9           00215     MOVWF   count
                      00216     
                      00217     
0072                  00218 set_timer:
0072   3001           00219     MOVLW   d'1'
0073   0229           00220     SUBWF   count,w     ;
0074   1D03           00221     BTFSS   STATUS,Z    ;countが1ならスキップ
0075   2???           00222     GOTO    normal
                      00223     ;MOVLW   d'250'     ;256-250=6  1536us計測
0076   30B9           00224     MOVLW   d'185'      ;256-185=71  1536us計測
0077   2???           00225     GOTO    set_point
                      00226     
0078                  00227 normal:
0078   303D           00228     MOVLW   TMR_INI         ;TMR0再設定
                      00229     
0079                  00230 set_point:
0079   0081           00231     MOVWF   TMR0
                      00232     
007A   30A0           00233     MOVLW   B'10100000'     ;タイマー0のオバーフロー割り込み許可
007B   008B           00234     MOVWF   INTCON          ;T0IFビットクリア
                      00235     
007C   0E21           00236     SWAPF   status_tmp,w    ;復帰
007D   0083           00237     MOVWF   STATUS
007E   0EA0           00238     SWAPF   w_tmp,f
007F   0E20           00239     SWAPF   w_tmp,w
0080   0009           00240     RETFIE  
                      00241     
                      00242     
                      00243     
                      00244     
                      00245 ;1秒カウントアップ（繰り上がりを含む
0081                  00246 countup:
0081   0AA2           00247     INCF    sec,f   ;インクリメント
0082   303C           00248     MOVLW   d'60'
0083   0222           00249     SUBWF   sec,w   ;60引いてみて
0084   1D03           00250     BTFSS   STATUS,Z    ;0ならスキップ
MPASM 5.87           CLOCK_7SEGMENT_MAIN.ASM   8-22-2024  23:21:25         PAGE  6


LOC  OBJECT CODE     LINE SOURCE TEXT
  VALUE

0085   0008           00251     RETURN
                      00252     
                      00253     ;分の繰り上がり
0086   01A2           00254     CLRF    sec     ;秒を0に
0087   0AA3           00255     INCF    min,f   ;分をインクリメント
0088   303C           00256     MOVLW   d'60'
0089   0223           00257     SUBWF   min,w   ;60引いてみて
008A   1D03           00258     BTFSS   STATUS,Z    ;0ならスキップ
008B   0008           00259     RETURN
                      00260     
                      00261     ;時間の繰り上がり
008C   01A3           00262     CLRF    min     ;分を0に
008D   0AA4           00263     INCF    hour,f  ;時間をインクリメント
008E   3018           00264     MOVLW   d'24'
008F   0224           00265     SUBWF   hour,w  ;24引いてみて
0090   1D03           00266     BTFSS   STATUS,Z    ;0ならスキップ
0091   0008           00267     RETURN
                      00268     
                      00269     ;24時間経ったら全部クリア
0092   01A4           00270     CLRF    hour
0093   01A3           00271     CLRF    min
0094   01A2           00272     CLRF    sec
                      00273     
0095   0008           00274     RETURN
                      00275     
                      00276  
                      00277  
Warning[205]: Found directive in column 1. (END)
3F50                  00278 END
MPASM 5.87           CLOCK_7SEGMENT_MAIN.ASM   8-22-2024  23:21:25         PAGE  7


SYMBOL TABLE
  LABEL                             VALUE 

ADDEN                             00000003
ADEN                              00000003
BRGH                              00000002
C                                 00000000
C1INV                             00000004
C1OUT                             00000006
C2INV                             00000005
C2OUT                             00000007
CCP1CON                           00000017
CCP1IE                            00000002
CCP1IF                            00000002
CCP1M0                            00000000
CCP1M1                            00000001
CCP1M2                            00000002
CCP1M3                            00000003
CCP1X                             00000005
CCP1Y                             00000004
CCPR1                             00000015
CCPR1H                            00000016
CCPR1L                            00000015
CIS                               00000003
CM0                               00000000
CM1                               00000001
CM2                               00000002
CMCON                             0000001F
CMIE                              00000006
CMIF                              00000006
CNT1                              0000002A
CNT1MS                            d'21'
CNT2                              0000002B
CREN                              00000004
CSRC                              00000007
DATA_CP_OFF                       00003FFF
DATA_CP_ON                        00003EFF
DC                                00000001
DLP1                              00000060
DLP2                              00000062
DLY_50                            0000005E
EEADR                             0000009B
EECON1                            0000009C
EECON2                            0000009D
EEDATA                            0000009A
EEIE                              00000007
EEIF                              00000007
F                                 00000001
FERR                              00000002
FSR                               00000004
GIE                               00000007
INDF                              00000000
INTCON                            0000000B
INTE                              00000004
INTEDG                            00000006
INTF                              00000001
MPASM 5.87           CLOCK_7SEGMENT_MAIN.ASM   8-22-2024  23:21:25         PAGE  8


SYMBOL TABLE
  LABEL                             VALUE 

IRP                               00000007
ISR                               00000069
NOT_BO                            00000000
NOT_BOD                           00000000
NOT_BOR                           00000000
NOT_PD                            00000003
NOT_POR                           00000001
NOT_RBPU                          00000007
NOT_T1SYNC                        00000002
NOT_TO                            00000004
OERR                              00000001
OPTION_REG                        00000081
OSCF                              00000003
PCL                               00000002
PCLATH                            0000000A
PCON                              0000008E
PEIE                              00000006
PIE1                              0000008C
PIR1                              0000000C
PORTA                             00000005
PORTB                             00000006
PR2                               00000092
PS0                               00000000
PS1                               00000001
PS2                               00000002
PSA                               00000003
RA0                               00000000
RA1                               00000001
RA2                               00000002
RA3                               00000003
RA4                               00000004
RA5                               00000005
RA6                               00000006
RA7                               00000007
RB0                               00000000
RB1                               00000001
RB2                               00000002
RB3                               00000003
RB4                               00000004
RB5                               00000005
RB6                               00000006
RB7                               00000007
RBIE                              00000003
RBIF                              00000000
RCIE                              00000005
RCIF                              00000005
RCREG                             0000001A
RCSTA                             00000018
RD                                00000000
RP0                               00000005
RP1                               00000006
RX9                               00000006
RX9D                              00000000
MPASM 5.87           CLOCK_7SEGMENT_MAIN.ASM   8-22-2024  23:21:25         PAGE  9


SYMBOL TABLE
  LABEL                             VALUE 

SPBRG                             00000099
SPEN                              00000007
SREN                              00000005
STATUS                            00000003
SYNC                              00000004
T0CS                              00000005
T0IE                              00000005
T0IF                              00000002
T0SE                              00000004
T1CKPS0                           00000004
T1CKPS1                           00000005
T1CON                             00000010
T1OSCEN                           00000003
T2CKPS0                           00000000
T2CKPS1                           00000001
T2CON                             00000012
TMR0                              00000001
TMR0IE                            00000005
TMR0IF                            00000002
TMR1                              0000000E
TMR1CS                            00000001
TMR1H                             0000000F
TMR1IE                            00000000
TMR1IF                            00000000
TMR1L                             0000000E
TMR1ON                            00000000
TMR2                              00000011
TMR2IE                            00000001
TMR2IF                            00000001
TMR2ON                            00000002
TMR_INI                           d'61'
TOUTPS0                           00000003
TOUTPS1                           00000004
TOUTPS2                           00000005
TOUTPS3                           00000006
TRISA                             00000085
TRISA0                            00000000
TRISA1                            00000001
TRISA2                            00000002
TRISA3                            00000003
TRISA4                            00000004
TRISA5                            00000005
TRISA6                            00000006
TRISA7                            00000007
TRISB                             00000086
TRISB0                            00000000
TRISB1                            00000001
TRISB2                            00000002
TRISB3                            00000003
TRISB4                            00000004
TRISB5                            00000005
TRISB6                            00000006
TRISB7                            00000007
MPASM 5.87           CLOCK_7SEGMENT_MAIN.ASM   8-22-2024  23:21:25         PAGE 10


SYMBOL TABLE
  LABEL                             VALUE 

TRMT                              00000001
TX9                               00000006
TX9D                              00000000
TXEN                              00000005
TXIE                              00000004
TXIF                              00000004
TXREG                             00000019
TXSTA                             00000098
VR0                               00000000
VR1                               00000001
VR2                               00000002
VR3                               00000003
VRCON                             0000009F
VREN                              00000007
VROE                              00000006
VRR                               00000005
W                                 00000000
WR                                00000001
WREN                              00000002
WRERR                             00000003
Z                                 00000002
_BODEN_OFF                        00003FBF
_BODEN_ON                         00003FFF
_BOREN_OFF                        00003FBF
_BOREN_ON                         00003FFF
_CONFIG                           00002007
_CPD_OFF                          00003FFF
_CPD_ON                           00003EFF
_CP_OFF                           00003FFF
_CP_ON                            00001FFF
_DEVID1                           00002006
_ER_OSC_CLKOUT                    00003FFF
_ER_OSC_NOCLKOUT                  00003FFE
_EXTCLK_OSC                       00003FEF
_FOSC_ECIO                        00003FEF
_FOSC_EXTRCCLK                    00003FFF
_FOSC_EXTRCIO                     00003FFE
_FOSC_HS                          00003FEE
_FOSC_INTOSCCLK                   00003FFD
_FOSC_INTOSCIO                    00003FFC
_FOSC_LP                          00003FEC
_FOSC_XT                          00003FED
_HS_OSC                           00003FEE
_IDLOC0                           00002000
_IDLOC1                           00002001
_IDLOC2                           00002002
_IDLOC3                           00002003
_INTOSC_OSC_CLKOUT                00003FFD
_INTOSC_OSC_NOCLKOUT              00003FFC
_INTRC_OSC_CLKOUT                 00003FFD
_INTRC_OSC_NOCLKOUT               00003FFC
_LP_OSC                           00003FEC
_LVP_OFF                          00003F7F
MPASM 5.87           CLOCK_7SEGMENT_MAIN.ASM   8-22-2024  23:21:25         PAGE 11


SYMBOL TABLE
  LABEL                             VALUE 

_LVP_ON                           00003FFF
_MCLRE_OFF                        00003FDF
_MCLRE_ON                         00003FFF
_PWRTE_OFF                        00003FFF
_PWRTE_ON                         00003FF7
_RC_OSC_CLKOUT                    00003FFF
_RC_OSC_NOCLKOUT                  00003FFE
_WDTE_OFF                         00003FFB
_WDTE_ON                          00003FFF
_WDT_OFF                          00003FFB
_WDT_ON                           00003FFF
_XT_OSC                           00003FED
__16F628A                         00000001
__DEBUG                           
__MPLAB_DEBUGGER_SIMULATOR        1
a_pattern                         00000042
count                             00000029
countup                           00000081
digit                             00000028
dynamic_con                       00000021
get_hour                          0000002D
get_hour_16                       00000033
get_min                           0000002F
get_min_16                        00000035
get_sec                           00000031
get_sec_16                        00000037
hour                              00000024
hour_swap                         00000027
inc_digit                         0000003B
main                              00000019
main_loop                         0000001F
min                               00000023
min_swap                          00000026
normal                            00000078
sec                               00000022
sec_swap                          00000025
segment_data                      0000004B
set_data                          00000038
set_point                         00000079
set_timer                         00000072
setup                             00000005
status_tmp                        00000021
w_tmp                             00000020

Errors   :     0
Warnings :     2 reported,     0 suppressed
Messages :     3 reported,     0 suppressed

